	.file	"multiply_by_three.c"
	.text
	.section	.rodata
.LC0:
	.string	"%d"
.LC1:
	.string	"%d\n"
	.text
	.globl	main
	.type	main, @function
main:
.LFB0:
	.cfi_startproc
	endbr32
	leal	4(%esp), %ecx
	.cfi_def_cfa 1, 0
	andl	$-16, %esp
	pushl	-4(%ecx)
	pushl	%ebp
	movl	%esp, %ebp
	.cfi_escape 0x10,0x5,0x2,0x75,0
	pushl	%ebx
	pushl	%ecx
	.cfi_escape 0xf,0x3,0x75,0x78,0x6
	.cfi_escape 0x10,0x3,0x2,0x75,0x7c
	subl	$16, %esp
	call	__x86.get_pc_thunk.bx
	addl	$_GLOBAL_OFFSET_TABLE_, %ebx
	movl	%gs:20, %eax
	movl	%eax, -12(%ebp)
	xorl	%eax, %eax
	subl	$8, %esp
	leal	-20(%ebp), %eax
	pushl	%eax
	leal	.LC0@GOTOFF(%ebx), %eax
	pushl	%eax
	call	__isoc99_scanf@PLT
	addl	$16, %esp
	movl	-20(%ebp), %edx
    // ---------------------
    // Здесь можно увидеть, что компилятор старается избежать использование умножения из-за того, что это дорогая операция
    // тут он делает два раза сложение. Если бы мы умножали на 7, то он сделал бы умножение на 8 (через сдвиг) и вычел бы один раз число
	movl	%edx, %eax
	addl	%eax, %eax
	addl	%edx, %eax
    // --------------------
	movl	%eax, -16(%ebp)
	subl	$8, %esp
	pushl	-16(%ebp)
	leal	.LC1@GOTOFF(%ebx), %eax
	pushl	%eax
	call	printf@PLT
	addl	$16, %esp
	movl	$0, %eax
	movl	-12(%ebp), %ecx
	xorl	%gs:20, %ecx
	je	.L3
	call	__stack_chk_fail_local
.L3:
	leal	-8(%ebp), %esp
	popl	%ecx
	.cfi_restore 1
	.cfi_def_cfa 1, 0
	popl	%ebx
	.cfi_restore 3
	popl	%ebp
	.cfi_restore 5
	leal	-4(%ecx), %esp
	.cfi_def_cfa 4, 4
	ret
	.cfi_endproc
.LFE0:
	.size	main, .-main
	.section	.text.__x86.get_pc_thunk.bx,"axG",@progbits,__x86.get_pc_thunk.bx,comdat
	.globl	__x86.get_pc_thunk.bx
	.hidden	__x86.get_pc_thunk.bx
	.type	__x86.get_pc_thunk.bx, @function
__x86.get_pc_thunk.bx:
.LFB1:
	.cfi_startproc
	movl	(%esp), %ebx
	ret
	.cfi_endproc
.LFE1:
	.hidden	__stack_chk_fail_local
	.ident	"GCC: (Ubuntu 9.4.0-1ubuntu1~20.04.1) 9.4.0"
	.section	.note.GNU-stack,"",@progbits
	.section	.note.gnu.property,"a"
	.align 4
	.long	 1f - 0f
	.long	 4f - 1f
	.long	 5
0:
	.string	 "GNU"
1:
	.align 4
	.long	 0xc0000002
	.long	 3f - 2f
2:
	.long	 0x3
3:
	.align 4
4:
