	.file	"multiply_by_three.c"
	.text
	.section	.rodata.str1.1,"aMS",@progbits,1
.LC0:
	.string	"%d"
.LC1:
	.string	"%d\n"
	.section	.text.startup,"ax",@progbits
	.p2align 4
	.globl	main
	.type	main, @function
main:
.LFB23:
	.cfi_startproc
	endbr32
	leal	4(%esp), %ecx
	.cfi_def_cfa 1, 0
	andl	$-16, %esp
	pushl	-4(%ecx)
	pushl	%ebp
	movl	%esp, %ebp
	.cfi_escape 0x10,0x5,0x2,0x75,0
	pushl	%ebx
	.cfi_escape 0x10,0x3,0x2,0x75,0x7c
	call	__x86.get_pc_thunk.bx
	addl	$_GLOBAL_OFFSET_TABLE_, %ebx
	pushl	%ecx
	.cfi_escape 0xf,0x3,0x75,0x78,0x6
	subl	$24, %esp
	movl	%gs:20, %eax
	movl	%eax, -12(%ebp)
	xorl	%eax, %eax
	leal	-16(%ebp), %eax
	pushl	%eax
	leal	.LC0@GOTOFF(%ebx), %eax
	pushl	%eax
	call	__isoc99_scanf@PLT
	movl	-16(%ebp), %eax
	addl	$12, %esp
    // ---------------------
    //
    // То же самое место умножение на 3, но сделанное с оптимизацией. Сложение заменилось на использование
    // инструкции lea: %eax = %eax + %eax * 2
	leal	(%eax,%eax,2), %eax
    // ---------------------
	pushl	%eax
	leal	.LC1@GOTOFF(%ebx), %eax
	pushl	%eax
	pushl	$1
	call	__printf_chk@PLT
	addl	$16, %esp
	movl	-12(%ebp), %eax
	xorl	%gs:20, %eax
	jne	.L5
	leal	-8(%ebp), %esp
	xorl	%eax, %eax
	popl	%ecx
	.cfi_remember_state
	.cfi_restore 1
	.cfi_def_cfa 1, 0
	popl	%ebx
	.cfi_restore 3
	popl	%ebp
	.cfi_restore 5
	leal	-4(%ecx), %esp
	.cfi_def_cfa 4, 4
	ret
.L5:
	.cfi_restore_state
	call	__stack_chk_fail_local
	.cfi_endproc
.LFE23:
	.size	main, .-main
	.section	.text.__x86.get_pc_thunk.bx,"axG",@progbits,__x86.get_pc_thunk.bx,comdat
	.globl	__x86.get_pc_thunk.bx
	.hidden	__x86.get_pc_thunk.bx
	.type	__x86.get_pc_thunk.bx, @function
__x86.get_pc_thunk.bx:
.LFB24:
	.cfi_startproc
	movl	(%esp), %ebx
	ret
	.cfi_endproc
.LFE24:
	.hidden	__stack_chk_fail_local
	.ident	"GCC: (Ubuntu 9.4.0-1ubuntu1~20.04.1) 9.4.0"
	.section	.note.GNU-stack,"",@progbits
	.section	.note.gnu.property,"a"
	.align 4
	.long	 1f - 0f
	.long	 4f - 1f
	.long	 5
0:
	.string	 "GNU"
1:
	.align 4
	.long	 0xc0000002
	.long	 3f - 2f
2:
	.long	 0x3
3:
	.align 4
4:
